target datalayout = "e-m:e-p270:32:32-p271:32:32-p272:64:64-i64:64-i128:128-f80:128-n8:16:32:64-S128"
target triple = "x86_64-pc-linux-gnu"

@.str = private unnamed_addr constant [33 x i8] c"\0AERROR - %s line %d failed with:\00", align 1
@.str.1 = private unnamed_addr constant [105 x i8] c"generated/home/dtcxzyw/WorkSpace/Projects/compilers/llvm-opt-benchmark/bench/wolfssl/wolfssl/tests/api.c\00", align 1
@.str.2 = private unnamed_addr constant [16 x i8] c"\0A    expected: \00", align 1
@stdout = external global ptr, align 8
@.str.3 = private unnamed_addr constant [9 x i8] c"%s == %s\00", align 1
@.str.6 = private unnamed_addr constant [16 x i8] c"\0A    result:   \00", align 1
@.str.7 = private unnamed_addr constant [9 x i8] c"%d != %d\00", align 1
@.str.8 = private unnamed_addr constant [3 x i8] c"\0A\0A\00", align 1
@.str.993 = private unnamed_addr constant [16 x i8] c"WOLFSSL_SUCCESS\00", align 1
@.str.2151 = private unnamed_addr constant [18 x i8] c"wolfSSL_Cleanup()\00", align 1

; Function Attrs: nounwind uwtable
define internal i32 @test_wolfSSL_Cleanup() #0 {
  %1 = alloca i32, align 4
  %2 = alloca i32, align 4
  %3 = alloca i32, align 4
  %4 = alloca i32, align 4
  call void @llvm.lifetime.start.p0(i64 4, ptr %1) #14
  store i32 3, ptr %1, align 4, !tbaa !10
  call void @llvm.lifetime.start.p0(i64 4, ptr %2) #14
  store i32 0, ptr %2, align 4, !tbaa !10
  br label %5

5:                                                ; preds = %0
  %6 = load i32, ptr %1, align 4, !tbaa !10
  %7 = icmp eq i32 %6, 1
  br i1 %7, label %17, label %8

8:                                                ; preds = %5
  %9 = load i32, ptr %1, align 4, !tbaa !10
  %10 = icmp eq i32 %9, 3
  br i1 %10, label %17, label %11

11:                                               ; preds = %8
  %12 = load i32, ptr %1, align 4, !tbaa !10
  %13 = icmp eq i32 %12, 2
  br i1 %13, label %17, label %14

14:                                               ; preds = %11
  %15 = load i32, ptr %1, align 4, !tbaa !10
  %16 = icmp eq i32 %15, 4
  br i1 %16, label %17, label %77

17:                                               ; preds = %14, %11, %8, %5
  call void @llvm.lifetime.start.p0(i64 4, ptr %3) #14
  %18 = call i32 @wolfSSL_Cleanup()
  store i32 %18, ptr %3, align 4, !tbaa !10
  call void @llvm.lifetime.start.p0(i64 4, ptr %4) #14
  store i32 1, ptr %4, align 4, !tbaa !10
  br label %19

19:                                               ; preds = %17
  %20 = load i32, ptr %1, align 4, !tbaa !10
  %21 = icmp eq i32 %20, 1
  br i1 %21, label %31, label %22

22:                                               ; preds = %19
  %23 = load i32, ptr %1, align 4, !tbaa !10
  %24 = icmp eq i32 %23, 3
  br i1 %24, label %31, label %25

25:                                               ; preds = %22
  %26 = load i32, ptr %1, align 4, !tbaa !10
  %27 = icmp eq i32 %26, 2
  br i1 %27, label %31, label %28

28:                                               ; preds = %25
  %29 = load i32, ptr %1, align 4, !tbaa !10
  %30 = icmp eq i32 %29, 4
  br i1 %30, label %31, label %68

31:                                               ; preds = %28, %25, %22, %19
  %32 = load i32, ptr %3, align 4, !tbaa !10
  %33 = load i32, ptr %4, align 4, !tbaa !10
  %34 = icmp eq i32 %32, %33
  br i1 %34, label %61, label %35

35:                                               ; preds = %31
  br label %36

36:                                               ; preds = %35
  %37 = load i32, ptr %1, align 4, !tbaa !10
  %38 = icmp eq i32 %37, 2
  br i1 %38, label %42, label %39

39:                                               ; preds = %36
  %40 = load i32, ptr %1, align 4, !tbaa !10
  %41 = icmp eq i32 %40, 4
  br i1 %41, label %42, label %44

42:                                               ; preds = %39, %36
  %43 = load i32, ptr %2, align 4, !tbaa !10
  store i32 %43, ptr %1, align 4, !tbaa !10
  br label %58

44:                                               ; preds = %39
  %45 = call i32 (ptr, ...) @printf(ptr noundef @.str, ptr noundef @.str.1, i32 noundef 654)
  %46 = load ptr, ptr @stdout, align 8, !tbaa !22
  %47 = call i32 @fputs(ptr noundef @.str.2, ptr noundef %46)
  %48 = call i32 (ptr, ...) @printf(ptr noundef @.str.3, ptr noundef @.str.2151, ptr noundef @.str.993)
  %49 = load ptr, ptr @stdout, align 8, !tbaa !22
  %50 = call i32 @fputs(ptr noundef @.str.6, ptr noundef %49)
  %51 = load i32, ptr %3, align 4, !tbaa !10
  %52 = load i32, ptr %4, align 4, !tbaa !10
  %53 = call i32 (ptr, ...) @printf(ptr noundef @.str.7, i32 noundef %51, i32 noundef %52)
  %54 = load ptr, ptr @stdout, align 8, !tbaa !22
  %55 = call i32 @fputs(ptr noundef @.str.8, ptr noundef %54)
  %56 = load ptr, ptr @stdout, align 8, !tbaa !22
  %57 = call i32 @fflush(ptr noundef %56)
  store i32 0, ptr %1, align 4, !tbaa !10
  br label %58

58:                                               ; preds = %44, %42
  br label %59

59:                                               ; preds = %58
  br label %60

60:                                               ; preds = %59
  br label %67

61:                                               ; preds = %31
  %62 = load i32, ptr %1, align 4, !tbaa !10
  %63 = icmp eq i32 %62, 4
  br i1 %63, label %64, label %65

64:                                               ; preds = %61
  store i32 2, ptr %1, align 4, !tbaa !10
  br label %66

65:                                               ; preds = %61
  store i32 1, ptr %1, align 4, !tbaa !10
  br label %66

66:                                               ; preds = %65, %64
  br label %67

67:                                               ; preds = %66, %60
  br label %68

68:                                               ; preds = %67, %28
  %69 = load i32, ptr %1, align 4, !tbaa !10
  %70 = icmp eq i32 %69, 2
  br i1 %70, label %71, label %74

71:                                               ; preds = %68
  %72 = load i32, ptr %2, align 4, !tbaa !10
  %73 = add nsw i32 %72, -1
  store i32 %73, ptr %2, align 4, !tbaa !10
  br label %74

74:                                               ; preds = %71, %68
  br label %75

75:                                               ; preds = %74
  br label %76

76:                                               ; preds = %75
  call void @llvm.lifetime.end.p0(i64 4, ptr %4) #14
  call void @llvm.lifetime.end.p0(i64 4, ptr %3) #14
  br label %77

77:                                               ; preds = %76, %14
  br label %78

78:                                               ; preds = %77
  br label %79

79:                                               ; preds = %78
  %80 = load i32, ptr %1, align 4, !tbaa !10
  %81 = icmp eq i32 %80, 2
  br i1 %81, label %82, label %83

82:                                               ; preds = %79
  br label %91

83:                                               ; preds = %79
  %84 = load i32, ptr %1, align 4, !tbaa !10
  %85 = icmp eq i32 %84, 4
  br i1 %85, label %86, label %87

86:                                               ; preds = %83
  br label %89

87:                                               ; preds = %83
  %88 = load i32, ptr %1, align 4, !tbaa !10
  br label %89

89:                                               ; preds = %87, %86
  %90 = phi i32 [ 3, %86 ], [ %88, %87 ]
  br label %91

91:                                               ; preds = %89, %82
  %92 = phi i32 [ 1, %82 ], [ %90, %89 ]
  call void @llvm.lifetime.end.p0(i64 4, ptr %2) #14
  call void @llvm.lifetime.end.p0(i64 4, ptr %1) #14
  ret i32 %92
}